target datalayout = "e-m:e-p270:32:32-p271:32:32-p272:64:64-i64:64-i128:128-f80:128-n8:16:32:64-S128"
target triple = "x86_64-pc-linux-gnu"

%class.ciTypeFlow = type { ptr, ptr, i32, i8, ptr, ptr, ptr, ptr, ptr, i32, ptr, ptr }
%class.ciMetadata = type { %class.ciBaseObject.base, ptr }
%class.ciBaseObject.base = type <{ ptr, i32 }>
%class.ciType = type <{ %class.ciMetadata, i8, [7 x i8] }>

@_ZN5ciEnv13_Object_klassE = external global ptr, align 8

; Function Attrs: mustprogress nounwind uwtable
define linkonce_odr hidden noundef zeroext i1 @_Z17is_reference_type9BasicTypeb(i8 noundef zeroext %0, i1 noundef zeroext %1) #1 comdat {
  %3 = alloca i8, align 1
  %4 = alloca i8, align 1
  store i8 %0, ptr %3, align 1
  %5 = zext i1 %1 to i8
  store i8 %5, ptr %4, align 1
  %6 = load i8, ptr %3, align 1
  %7 = zext i8 %6 to i32
  %8 = icmp eq i32 %7, 12
  br i1 %8, label %22, label %9

9:                                                ; preds = %2
  %10 = load i8, ptr %3, align 1
  %11 = zext i8 %10 to i32
  %12 = icmp eq i32 %11, 13
  br i1 %12, label %22, label %13

13:                                               ; preds = %9
  %14 = load i8, ptr %4, align 1
  %15 = trunc i8 %14 to i1
  br i1 %15, label %16, label %20

16:                                               ; preds = %13
  %17 = load i8, ptr %3, align 1
  %18 = zext i8 %17 to i32
  %19 = icmp eq i32 %18, 16
  br label %20

20:                                               ; preds = %16, %13
  %21 = phi i1 [ false, %13 ], [ %19, %16 ]
  br label %22

22:                                               ; preds = %20, %9, %2
  %23 = phi i1 [ true, %9 ], [ true, %2 ], [ %21, %20 ]
  ret i1 %23
}

; Function Attrs: mustprogress nounwind uwtable
define linkonce_odr hidden noundef zeroext i8 @_ZNK6ciType10basic_typeEv(ptr noundef nonnull align 8 dereferenceable(25) %0) #1 comdat align 2 {
  %2 = alloca ptr, align 8
  store ptr %0, ptr %2, align 8
  %3 = load ptr, ptr %2, align 8
  %4 = getelementptr inbounds %class.ciType, ptr %3, i32 0, i32 1
  %5 = load i8, ptr %4, align 8
  ret i8 %5
}

; Function Attrs: mustprogress nounwind uwtable
define linkonce_odr hidden noundef ptr @_ZN10ciMetadata18as_obj_array_klassEv(ptr noundef nonnull align 8 dereferenceable(24) %0) #1 comdat align 2 {
  %2 = alloca ptr, align 8
  store ptr %0, ptr %2, align 8
  %3 = load ptr, ptr %2, align 8
  ret ptr %3
}

; Function Attrs: mustprogress nounwind uwtable
define linkonce_odr hidden noundef zeroext i1 @_ZNK10ciMetadata9is_loadedEv(ptr noundef nonnull align 8 dereferenceable(24) %0) #1 comdat align 2 {
  %2 = alloca ptr, align 8
  store ptr %0, ptr %2, align 8
  %3 = load ptr, ptr %2, align 8
  %4 = getelementptr inbounds %class.ciMetadata, ptr %3, i32 0, i32 1
  %5 = load ptr, ptr %4, align 8
  %6 = icmp ne ptr %5, null
  br i1 %6, label %12, label %7

7:                                                ; preds = %1
  %8 = load ptr, ptr %3, align 8
  %9 = getelementptr inbounds ptr, ptr %8, i64 4
  %10 = load ptr, ptr %9, align 8
  %11 = call noundef zeroext i1 %10(ptr noundef nonnull align 8 dereferenceable(24) %3)
  br label %12

12:                                               ; preds = %7, %1
  %13 = phi i1 [ true, %1 ], [ %11, %7 ]
  ret i1 %13
}

; Function Attrs: mustprogress nounwind uwtable
define linkonce_odr hidden noundef ptr @_ZN10ciMetadata8as_klassEv(ptr noundef nonnull align 8 dereferenceable(24) %0) #1 comdat align 2 {
  %2 = alloca ptr, align 8
  store ptr %0, ptr %2, align 8
  %3 = load ptr, ptr %2, align 8
  ret ptr %3
}

; Function Attrs: mustprogress nounwind uwtable
define linkonce_odr hidden noundef ptr @_ZN5ciEnv12Object_klassEv(ptr noundef nonnull align 8 dereferenceable(1265) %0) #1 comdat align 2 {
  %2 = alloca ptr, align 8
  store ptr %0, ptr %2, align 8
  %3 = load ptr, ptr @_ZN5ciEnv13_Object_klassE, align 8
  ret ptr %3
}

; Function Attrs: mustprogress nounwind uwtable
define linkonce_odr hidden noundef ptr @_ZN10ciTypeFlow3envEv(ptr noundef nonnull align 8 dereferenceable(88) %0) #1 comdat align 2 {
  %2 = alloca ptr, align 8
  store ptr %0, ptr %2, align 8
  %3 = load ptr, ptr %2, align 8
  %4 = getelementptr inbounds %class.ciTypeFlow, ptr %3, i32 0, i32 0
  %5 = load ptr, ptr %4, align 8
  ret ptr %5
}

; Function Attrs: mustprogress nounwind uwtable
define linkonce_odr hidden noundef ptr @_ZN10ciTypeFlow11StateVector11bottom_typeEv() #1 comdat align 2 {
  %1 = call noundef ptr @_ZN6ciType4makeE9BasicType(i8 noundef zeroext 19)
  ret ptr %1
}

; Function Attrs: mustprogress nounwind uwtable
define linkonce_odr hidden noundef ptr @_ZN10ciTypeFlow11StateVector9null_typeEv() #1 comdat align 2 {
  %1 = call noundef ptr @_ZN6ciType4makeE9BasicType(i8 noundef zeroext 8)
  ret ptr %1
}

; Function Attrs: mustprogress nounwind uwtable
define linkonce_odr hidden noundef zeroext i1 @_ZNK6ciType17is_primitive_typeEv(ptr noundef nonnull align 8 dereferenceable(25) %0) #1 comdat align 2 {
  %2 = alloca ptr, align 8
  store ptr %0, ptr %2, align 8
  %3 = load ptr, ptr %2, align 8
  %4 = call noundef zeroext i8 @_ZNK6ciType10basic_typeEv(ptr noundef nonnull align 8 dereferenceable(25) %3)
  %5 = call noundef zeroext i1 @_Z17is_reference_type9BasicTypeb(i8 noundef zeroext %4, i1 noundef zeroext false)
  %6 = xor i1 %5, true
  ret i1 %6
}

; Function Attrs: mustprogress nounwind uwtable
define linkonce_odr hidden noundef zeroext i1 @_ZNK10ciMetadata6equalsEPS_(ptr noundef nonnull align 8 dereferenceable(24) %0, ptr noundef %1) #1 comdat align 2 {
  %3 = alloca ptr, align 8
  %4 = alloca ptr, align 8
  store ptr %0, ptr %3, align 8
  store ptr %1, ptr %4, align 8
  %5 = load ptr, ptr %3, align 8
  %6 = load ptr, ptr %4, align 8
  %7 = icmp eq ptr %5, %6
  ret i1 %7
}

; Function Attrs: mustprogress nounwind uwtable
define linkonce_odr hidden noundef ptr @_ZN10ciTypeFlow11StateVector8top_typeEv() #1 comdat align 2 {
  %1 = call noundef ptr @_ZN6ciType4makeE9BasicType(i8 noundef zeroext 14)
  ret ptr %1
}

; Function Attrs: mustprogress nounwind uwtable
define hidden noundef ptr @_ZN10ciTypeFlow11StateVector18type_meet_internalEP6ciTypeS2_PS_(ptr noundef %0, ptr noundef %1, ptr noundef %2) #1 align 2 {
  %4 = alloca ptr, align 8
  %5 = alloca ptr, align 8
  %6 = alloca ptr, align 8
  %7 = alloca ptr, align 8
  %8 = alloca ptr, align 8
  %9 = alloca ptr, align 8
  %10 = alloca ptr, align 8
  %11 = alloca ptr, align 8
  %12 = alloca ptr, align 8
  %13 = alloca ptr, align 8
  store ptr %0, ptr %5, align 8
  store ptr %1, ptr %6, align 8
  store ptr %2, ptr %7, align 8
  %14 = load ptr, ptr %5, align 8
  %15 = call noundef ptr @_ZN10ciTypeFlow11StateVector8top_typeEv()
  %16 = call noundef zeroext i1 @_ZNK10ciMetadata6equalsEPS_(ptr noundef nonnull align 8 dereferenceable(24) %14, ptr noundef %15)
  br i1 %16, label %17, label %19

17:                                               ; preds = %3
  %18 = load ptr, ptr %6, align 8
  store ptr %18, ptr %4, align 8
  br label %155

19:                                               ; preds = %3
  %20 = load ptr, ptr %6, align 8
  %21 = call noundef ptr @_ZN10ciTypeFlow11StateVector8top_typeEv()
  %22 = call noundef zeroext i1 @_ZNK10ciMetadata6equalsEPS_(ptr noundef nonnull align 8 dereferenceable(24) %20, ptr noundef %21)
  br i1 %22, label %23, label %25

23:                                               ; preds = %19
  %24 = load ptr, ptr %5, align 8
  store ptr %24, ptr %4, align 8
  br label %155

25:                                               ; preds = %19
  %26 = load ptr, ptr %5, align 8
  %27 = call noundef zeroext i1 @_ZNK6ciType17is_primitive_typeEv(ptr noundef nonnull align 8 dereferenceable(25) %26)
  br i1 %27, label %31, label %28

28:                                               ; preds = %25
  %29 = load ptr, ptr %6, align 8
  %30 = call noundef zeroext i1 @_ZNK6ciType17is_primitive_typeEv(ptr noundef nonnull align 8 dereferenceable(25) %29)
  br i1 %30, label %31, label %58

31:                                               ; preds = %28, %25
  %32 = load ptr, ptr %5, align 8
  %33 = call noundef ptr @_ZN10ciTypeFlow11StateVector9null_typeEv()
  %34 = call noundef zeroext i1 @_ZNK10ciMetadata6equalsEPS_(ptr noundef nonnull align 8 dereferenceable(24) %32, ptr noundef %33)
  br i1 %34, label %35, label %45

35:                                               ; preds = %31
  %36 = load ptr, ptr %6, align 8
  %37 = call noundef zeroext i1 @_ZNK6ciType17is_primitive_typeEv(ptr noundef nonnull align 8 dereferenceable(25) %36)
  br i1 %37, label %38, label %42

38:                                               ; preds = %35
  %39 = load ptr, ptr %6, align 8
  %40 = call noundef ptr @_ZN10ciTypeFlow11StateVector9null_typeEv()
  %41 = call noundef zeroext i1 @_ZNK10ciMetadata6equalsEPS_(ptr noundef nonnull align 8 dereferenceable(24) %39, ptr noundef %40)
  br i1 %41, label %42, label %44

42:                                               ; preds = %38, %35
  %43 = load ptr, ptr %6, align 8
  store ptr %43, ptr %4, align 8
  br label %155

44:                                               ; preds = %38
  br label %56

45:                                               ; preds = %31
  %46 = load ptr, ptr %6, align 8
  %47 = call noundef ptr @_ZN10ciTypeFlow11StateVector9null_typeEv()
  %48 = call noundef zeroext i1 @_ZNK10ciMetadata6equalsEPS_(ptr noundef nonnull align 8 dereferenceable(24) %46, ptr noundef %47)
  br i1 %48, label %49, label %55

49:                                               ; preds = %45
  %50 = load ptr, ptr %5, align 8
  %51 = call noundef zeroext i1 @_ZNK6ciType17is_primitive_typeEv(ptr noundef nonnull align 8 dereferenceable(25) %50)
  br i1 %51, label %54, label %52

52:                                               ; preds = %49
  %53 = load ptr, ptr %5, align 8
  store ptr %53, ptr %4, align 8
  br label %155

54:                                               ; preds = %49
  br label %55

55:                                               ; preds = %54, %45
  br label %56

56:                                               ; preds = %55, %44
  %57 = call noundef ptr @_ZN10ciTypeFlow11StateVector11bottom_typeEv()
  store ptr %57, ptr %4, align 8
  br label %155

58:                                               ; preds = %28
  %59 = load ptr, ptr %7, align 8
  %60 = call noundef ptr @_ZN10ciTypeFlow3envEv(ptr noundef nonnull align 8 dereferenceable(88) %59)
  %61 = call noundef ptr @_ZN5ciEnv12Object_klassEv(ptr noundef nonnull align 8 dereferenceable(1265) %60)
  store ptr %61, ptr %8, align 8
  %62 = load ptr, ptr %5, align 8
  %63 = call noundef ptr @_ZN10ciMetadata8as_klassEv(ptr noundef nonnull align 8 dereferenceable(24) %62)
  store ptr %63, ptr %9, align 8
  %64 = load ptr, ptr %6, align 8
  %65 = call noundef ptr @_ZN10ciMetadata8as_klassEv(ptr noundef nonnull align 8 dereferenceable(24) %64)
  store ptr %65, ptr %10, align 8
  %66 = load ptr, ptr %9, align 8
  %67 = load ptr, ptr %8, align 8
  %68 = call noundef zeroext i1 @_ZNK10ciMetadata6equalsEPS_(ptr noundef nonnull align 8 dereferenceable(24) %66, ptr noundef %67)
  br i1 %68, label %73, label %69

69:                                               ; preds = %58
  %70 = load ptr, ptr %10, align 8
  %71 = load ptr, ptr %8, align 8
  %72 = call noundef zeroext i1 @_ZNK10ciMetadata6equalsEPS_(ptr noundef nonnull align 8 dereferenceable(24) %70, ptr noundef %71)
  br i1 %72, label %73, label %75

73:                                               ; preds = %69, %58
  %74 = load ptr, ptr %8, align 8
  store ptr %74, ptr %4, align 8
  br label %155

75:                                               ; preds = %69
  %76 = load ptr, ptr %9, align 8
  %77 = call noundef zeroext i1 @_ZNK10ciMetadata9is_loadedEv(ptr noundef nonnull align 8 dereferenceable(24) %76)
  br i1 %77, label %78, label %81

78:                                               ; preds = %75
  %79 = load ptr, ptr %10, align 8
  %80 = call noundef zeroext i1 @_ZNK10ciMetadata9is_loadedEv(ptr noundef nonnull align 8 dereferenceable(24) %79)
  br i1 %80, label %83, label %81

81:                                               ; preds = %78, %75
  %82 = load ptr, ptr %8, align 8
  store ptr %82, ptr %4, align 8
  br label %155

83:                                               ; preds = %78
  %84 = load ptr, ptr %9, align 8
  %85 = load ptr, ptr %84, align 8
  %86 = getelementptr inbounds ptr, ptr %85, i64 23
  %87 = load ptr, ptr %86, align 8
  %88 = call noundef zeroext i1 %87(ptr noundef nonnull align 8 dereferenceable(44) %84)
  %89 = zext i1 %88 to i32
  %90 = load ptr, ptr %10, align 8
  %91 = load ptr, ptr %90, align 8
  %92 = getelementptr inbounds ptr, ptr %91, i64 23
  %93 = load ptr, ptr %92, align 8
  %94 = call noundef zeroext i1 %93(ptr noundef nonnull align 8 dereferenceable(44) %90)
  %95 = zext i1 %94 to i32
  %96 = icmp ne i32 %89, %95
  br i1 %96, label %97, label %99

97:                                               ; preds = %83
  %98 = load ptr, ptr %8, align 8
  store ptr %98, ptr %4, align 8
  br label %155

99:                                               ; preds = %83
  %100 = load ptr, ptr %9, align 8
  %101 = load ptr, ptr %100, align 8
  %102 = getelementptr inbounds ptr, ptr %101, i64 11
  %103 = load ptr, ptr %102, align 8
  %104 = call noundef zeroext i1 %103(ptr noundef nonnull align 8 dereferenceable(24) %100)
  br i1 %104, label %111, label %105

105:                                              ; preds = %99
  %106 = load ptr, ptr %10, align 8
  %107 = load ptr, ptr %106, align 8
  %108 = getelementptr inbounds ptr, ptr %107, i64 11
  %109 = load ptr, ptr %108, align 8
  %110 = call noundef zeroext i1 %109(ptr noundef nonnull align 8 dereferenceable(24) %106)
  br i1 %110, label %111, label %151

111:                                              ; preds = %105, %99
  %112 = load ptr, ptr %9, align 8
  %113 = load ptr, ptr %112, align 8
  %114 = getelementptr inbounds ptr, ptr %113, i64 12
  %115 = load ptr, ptr %114, align 8
  %116 = call noundef zeroext i1 %115(ptr noundef nonnull align 8 dereferenceable(24) %112)
  br i1 %116, label %117, label %149

117:                                              ; preds = %111
  %118 = load ptr, ptr %10, align 8
  %119 = load ptr, ptr %118, align 8
  %120 = getelementptr inbounds ptr, ptr %119, i64 12
  %121 = load ptr, ptr %120, align 8
  %122 = call noundef zeroext i1 %121(ptr noundef nonnull align 8 dereferenceable(24) %118)
  br i1 %122, label %123, label %149

123:                                              ; preds = %117
  %124 = load ptr, ptr %9, align 8
  %125 = call noundef ptr @_ZN10ciMetadata18as_obj_array_klassEv(ptr noundef nonnull align 8 dereferenceable(24) %124)
  %126 = call noundef ptr @_ZN15ciObjArrayKlass13element_klassEv(ptr noundef nonnull align 8 dereferenceable(64) %125)
  store ptr %126, ptr %11, align 8
  %127 = load ptr, ptr %10, align 8
  %128 = call noundef ptr @_ZN10ciMetadata18as_obj_array_klassEv(ptr noundef nonnull align 8 dereferenceable(24) %127)
  %129 = call noundef ptr @_ZN15ciObjArrayKlass13element_klassEv(ptr noundef nonnull align 8 dereferenceable(64) %128)
  store ptr %129, ptr %12, align 8
  %130 = load ptr, ptr %11, align 8
  %131 = load ptr, ptr %12, align 8
  %132 = load ptr, ptr %7, align 8
  %133 = call noundef ptr @_ZN10ciTypeFlow11StateVector18type_meet_internalEP6ciTypeS2_PS_(ptr noundef %130, ptr noundef %131, ptr noundef %132)
  %134 = call noundef ptr @_ZN10ciMetadata8as_klassEv(ptr noundef nonnull align 8 dereferenceable(24) %133)
  store ptr %134, ptr %13, align 8
  %135 = load ptr, ptr %13, align 8
  %136 = load ptr, ptr %11, align 8
  %137 = icmp eq ptr %135, %136
  br i1 %137, label %138, label %140

138:                                              ; preds = %123
  %139 = load ptr, ptr %9, align 8
  store ptr %139, ptr %4, align 8
  br label %155

140:                                              ; preds = %123
  %141 = load ptr, ptr %13, align 8
  %142 = load ptr, ptr %12, align 8
  %143 = icmp eq ptr %141, %142
  br i1 %143, label %144, label %146

144:                                              ; preds = %140
  %145 = load ptr, ptr %10, align 8
  store ptr %145, ptr %4, align 8
  br label %155

146:                                              ; preds = %140
  %147 = load ptr, ptr %13, align 8
  %148 = call noundef ptr @_ZN15ciObjArrayKlass4makeEP7ciKlass(ptr noundef %147)
  store ptr %148, ptr %4, align 8
  br label %155

149:                                              ; preds = %117, %111
  %150 = load ptr, ptr %8, align 8
  store ptr %150, ptr %4, align 8
  br label %155

151:                                              ; preds = %105
  %152 = load ptr, ptr %9, align 8
  %153 = load ptr, ptr %10, align 8
  %154 = call noundef ptr @_ZN7ciKlass21least_common_ancestorEPS_(ptr noundef nonnull align 8 dereferenceable(44) %152, ptr noundef %153)
  store ptr %154, ptr %4, align 8
  br label %155

155:                                              ; preds = %151, %149, %146, %144, %138, %97, %81, %73, %56, %52, %42, %23, %17
  %156 = load ptr, ptr %4, align 8
  ret ptr %156
}