; Function Attrs: mustprogress nounwind uwtable
define hidden noundef ptr @_ZN10ciTypeFlow11StateVector18type_meet_internalEP6ciTypeS2_PS_(ptr noundef %0, ptr noundef %1, ptr nocapture noundef readonly %2) local_unnamed_addr #0 align 2 {
  %4 = tail call noundef ptr @_ZN6ciType4makeE9BasicType(i8 noundef zeroext 14) #14
  %5 = icmp eq ptr %4, %0
  br i1 %5, label %92, label %6

6:                                                ; preds = %3
  %7 = tail call noundef ptr @_ZN6ciType4makeE9BasicType(i8 noundef zeroext 14) #14
  %8 = icmp eq ptr %7, %1
  br i1 %8, label %92, label %9

9:                                                ; preds = %6
  %10 = getelementptr inbounds i8, ptr %0, i64 24
  %11 = load i8, ptr %10, align 8
  %12 = and i8 %11, -2
  %or.cond.i.i.not = icmp eq i8 %12, 12
  br i1 %or.cond.i.i.not, label %13, label %17

13:                                               ; preds = %9
  %14 = getelementptr inbounds i8, ptr %1, i64 24
  %15 = load i8, ptr %14, align 8
  %16 = and i8 %15, -2
  %or.cond.i.i48.not = icmp eq i8 %16, 12
  br i1 %or.cond.i.i48.not, label %35, label %17

17:                                               ; preds = %13, %9
  %18 = tail call noundef ptr @_ZN6ciType4makeE9BasicType(i8 noundef zeroext 8) #14
  %19 = icmp eq ptr %18, %0
  br i1 %19, label %20, label %27

20:                                               ; preds = %17
  %21 = getelementptr inbounds i8, ptr %1, i64 24
  %22 = load i8, ptr %21, align 8
  %23 = and i8 %22, -2
  %or.cond.i.i49.not = icmp eq i8 %23, 12
  br i1 %or.cond.i.i49.not, label %92, label %24

24:                                               ; preds = %20
  %25 = tail call noundef ptr @_ZN6ciType4makeE9BasicType(i8 noundef zeroext 8) #14
  %26 = icmp eq ptr %25, %1
  br i1 %26, label %92, label %33

27:                                               ; preds = %17
  %28 = tail call noundef ptr @_ZN6ciType4makeE9BasicType(i8 noundef zeroext 8) #14
  %29 = icmp eq ptr %28, %1
  br i1 %29, label %30, label %33

30:                                               ; preds = %27
  %31 = load i8, ptr %10, align 8
  %32 = and i8 %31, -2
  %or.cond.i.i50.not = icmp eq i8 %32, 12
  br i1 %or.cond.i.i50.not, label %92, label %33

33:                                               ; preds = %27, %30, %24
  %34 = tail call noundef ptr @_ZN6ciType4makeE9BasicType(i8 noundef zeroext 19) #14
  br label %92

35:                                               ; preds = %13
  %36 = load ptr, ptr @_ZN5ciEnv13_Object_klassE, align 8
  %37 = icmp eq ptr %36, %0
  %38 = icmp eq ptr %36, %1
  %or.cond = or i1 %37, %38
  br i1 %or.cond, label %92, label %39

39:                                               ; preds = %35
  %40 = getelementptr inbounds i8, ptr %0, i64 16
  %41 = load ptr, ptr %40, align 8
  %.not.i = icmp eq ptr %41, null
  br i1 %.not.i, label %_ZNK10ciMetadata9is_loadedEv.exit, label %_ZNK10ciMetadata9is_loadedEv.exit.thread

_ZNK10ciMetadata9is_loadedEv.exit:                ; preds = %39
  %42 = load ptr, ptr %0, align 8
  %43 = getelementptr inbounds i8, ptr %42, i64 32
  %44 = load ptr, ptr %43, align 8
  %45 = tail call noundef zeroext i1 %44(ptr noundef nonnull align 8 dereferenceable(24) %0) #14
  br i1 %45, label %_ZNK10ciMetadata9is_loadedEv.exit.thread, label %92

_ZNK10ciMetadata9is_loadedEv.exit.thread:         ; preds = %39, %_ZNK10ciMetadata9is_loadedEv.exit
  %46 = getelementptr inbounds i8, ptr %1, i64 16
  %47 = load ptr, ptr %46, align 8
  %.not.i51 = icmp eq ptr %47, null
  br i1 %.not.i51, label %_ZNK10ciMetadata9is_loadedEv.exit52, label %_ZNK10ciMetadata9is_loadedEv.exit52.thread

_ZNK10ciMetadata9is_loadedEv.exit52:              ; preds = %_ZNK10ciMetadata9is_loadedEv.exit.thread
  %48 = load ptr, ptr %1, align 8
  %49 = getelementptr inbounds i8, ptr %48, i64 32
  %50 = load ptr, ptr %49, align 8
  %51 = tail call noundef zeroext i1 %50(ptr noundef nonnull align 8 dereferenceable(24) %1) #14
  br i1 %51, label %_ZNK10ciMetadata9is_loadedEv.exit52.thread, label %92

_ZNK10ciMetadata9is_loadedEv.exit52.thread:       ; preds = %_ZNK10ciMetadata9is_loadedEv.exit.thread, %_ZNK10ciMetadata9is_loadedEv.exit52
  %52 = load ptr, ptr %0, align 8
  %53 = getelementptr inbounds i8, ptr %52, i64 184
  %54 = load ptr, ptr %53, align 8
  %55 = tail call noundef zeroext i1 %54(ptr noundef nonnull align 8 dereferenceable(44) %0) #14
  %56 = load ptr, ptr %1, align 8
  %57 = getelementptr inbounds i8, ptr %56, i64 184
  %58 = load ptr, ptr %57, align 8
  %59 = tail call noundef zeroext i1 %58(ptr noundef nonnull align 8 dereferenceable(44) %1) #14
  %60 = xor i1 %55, %59
  br i1 %60, label %92, label %61

61:                                               ; preds = %_ZNK10ciMetadata9is_loadedEv.exit52.thread
  %62 = load ptr, ptr %0, align 8
  %63 = getelementptr inbounds i8, ptr %62, i64 88
  %64 = load ptr, ptr %63, align 8
  %65 = tail call noundef zeroext i1 %64(ptr noundef nonnull align 8 dereferenceable(24) %0) #14
  br i1 %65, label %71, label %66

66:                                               ; preds = %61
  %67 = load ptr, ptr %1, align 8
  %68 = getelementptr inbounds i8, ptr %67, i64 88
  %69 = load ptr, ptr %68, align 8
  %70 = tail call noundef zeroext i1 %69(ptr noundef nonnull align 8 dereferenceable(24) %1) #14
  br i1 %70, label %71, label %90

71:                                               ; preds = %66, %61
  %72 = load ptr, ptr %0, align 8
  %73 = getelementptr inbounds i8, ptr %72, i64 96
  %74 = load ptr, ptr %73, align 8
  %75 = tail call noundef zeroext i1 %74(ptr noundef nonnull align 8 dereferenceable(24) %0) #14
  br i1 %75, label %76, label %92

76:                                               ; preds = %71
  %77 = load ptr, ptr %1, align 8
  %78 = getelementptr inbounds i8, ptr %77, i64 96
  %79 = load ptr, ptr %78, align 8
  %80 = tail call noundef zeroext i1 %79(ptr noundef nonnull align 8 dereferenceable(24) %1) #14
  br i1 %80, label %81, label %92

81:                                               ; preds = %76
  %82 = tail call noundef ptr @_ZN15ciObjArrayKlass13element_klassEv(ptr noundef nonnull align 8 dereferenceable(64) %0) #14
  %83 = tail call noundef ptr @_ZN15ciObjArrayKlass13element_klassEv(ptr noundef nonnull align 8 dereferenceable(64) %1) #14
  %84 = tail call noundef ptr @_ZN10ciTypeFlow11StateVector18type_meet_internalEP6ciTypeS2_PS_(ptr noundef %82, ptr noundef %83, ptr noundef nonnull %2)
  %85 = icmp eq ptr %84, %82
  br i1 %85, label %92, label %86

86:                                               ; preds = %81
  %87 = icmp eq ptr %84, %83
  br i1 %87, label %92, label %88

88:                                               ; preds = %86
  %89 = tail call noundef ptr @_ZN15ciObjArrayKlass4makeEP7ciKlass(ptr noundef %84) #14
  br label %92

90:                                               ; preds = %66
  %91 = tail call noundef ptr @_ZN7ciKlass21least_common_ancestorEPS_(ptr noundef nonnull align 8 dereferenceable(44) %0, ptr noundef nonnull %1) #14
  br label %92

92:                                               ; preds = %71, %76, %86, %81, %_ZNK10ciMetadata9is_loadedEv.exit52.thread, %_ZNK10ciMetadata9is_loadedEv.exit, %_ZNK10ciMetadata9is_loadedEv.exit52, %35, %30, %20, %24, %6, %3, %90, %88, %33
  %.0 = phi ptr [ %34, %33 ], [ %89, %88 ], [ %91, %90 ], [ %1, %3 ], [ %0, %6 ], [ %1, %24 ], [ %1, %20 ], [ %0, %30 ], [ %36, %35 ], [ %36, %_ZNK10ciMetadata9is_loadedEv.exit52 ], [ %36, %_ZNK10ciMetadata9is_loadedEv.exit ], [ %36, %_ZNK10ciMetadata9is_loadedEv.exit52.thread ], [ %0, %81 ], [ %1, %86 ], [ %36, %76 ], [ %36, %71 ]
  ret ptr %.0
}